; Function Attrs: nounwind uwtable
define noundef i32 @kinLsFree(ptr noundef %0) #0 {
  %2 = icmp eq ptr %0, null
  br i1 %2, label %15, label %3

3:                                                ; preds = %1
  %4 = getelementptr inbounds nuw i8, ptr %0, i64 584
  %5 = load ptr, ptr %4, align 8, !tbaa !55
  %6 = icmp eq ptr %5, null
  br i1 %6, label %15, label %7

7:                                                ; preds = %3
  %8 = getelementptr inbounds nuw i8, ptr %5, i64 40
  store ptr null, ptr %8, align 8, !tbaa !54
  %9 = getelementptr inbounds nuw i8, ptr %5, i64 136
  %10 = load ptr, ptr %9, align 8, !tbaa !85
  %.not = icmp eq ptr %10, null
  br i1 %.not, label %13, label %11

11:                                               ; preds = %7
  %12 = tail call i32 %10(ptr noundef nonnull %0) #13
  %.pre = load ptr, ptr %4, align 8, !tbaa !55
  br label %13

13:                                               ; preds = %11, %7
  %14 = phi ptr [ %.pre, %11 ], [ %5, %7 ]
  tail call void @free(ptr noundef %14) #13
  br label %15

15:                                               ; preds = %3, %1, %13
  ret i32 0
}